(lp0
(S'elfflags'
p1
ccopy_reg
_reconstructor
p2
(cino.utils
SpaceList
p3
c__builtin__
list
p4
(lp5
S'-Os'
p6
aS'-Wl,--gc-sections'
p7
aS'-mmcu=atmega328p'
p8
atp9
Rp10
tp11
a(S'version.txt'
p12
S'/usr/share/arduino/lib/version.txt'
p13
tp14
a(S'cc'
p15
S'/usr/bin/avr-gcc'
p16
tp17
a(S'build_dir'
p18
S'.build/uno'
p19
tp20
a(S'arduino_core_dir'
p21
S'/usr/share/arduino/hardware/arduino/cores/arduino'
p22
tp23
a(S'boards.txt'
p24
S'/usr/share/arduino/hardware/arduino/boards.txt'
p25
tp26
a(S'cxxflags'
p27
g2
(g3
g4
(lp28
S'-fno-exceptions'
p29
atp30
Rp31
tp32
a(S'arduino_variants_dir'
p33
S'/usr/share/arduino/hardware/arduino/variants'
p34
tp35
a(S'deps'
p36
g2
(g3
g4
(lp37
tp38
Rp39
tp40
a(S'ar'
p41
S'/usr/bin/avr-ar'
p42
tp43
a(S'names'
p44
(dp45
S'cpp'
p46
S'%s.cpp'
p47
sS'obj'
p48
S'%s.o'
p49
sS'deps'
p50
S'%s.d'
p51
sS'lib'
p52
S'lib%s.a'
p53
stp54
a(S'cflags'
p55
g2
(g3
g4
(lp56
g8
aS'-ffunction-sections'
p57
aS'-fdata-sections'
p58
aS'-g'
p59
ag6
aS'-w'
p60
aS'-DF_CPU=16000000L'
p61
aS'-DARDUINO=100'
p62
aS'-I/usr/share/arduino/hardware/arduino/cores/arduino'
p63
aS'-I/usr/share/arduino/hardware/arduino/variants/standard'
p64
atp65
Rp66
tp67
a(S'arduino_libraries_dir'
p68
S'/usr/share/arduino/libraries'
p69
tp70
a(S'arduino_lib_version'
p71
g2
(cino.environment
Version
p72
c__builtin__
tuple
p73
(I1
I0
tp74
tp75
Rp76
tp77
a(S'objcopy'
p78
S'/usr/bin/avr-objcopy'
p79
tp80
a(S'board_models'
p81
cino.environment
BoardModels
p82
((lp83
(lp84
S'uno'
p85
a(dp86
S'bootloader'
p87
(dp88
S'extended_fuses'
p89
S'0x05'
p90
sS'high_fuses'
p91
S'0xde'
p92
sS'low_fuses'
p93
S'0xff'
p94
sS'lock_bits'
p95
S'0x0F'
p96
sS'file'
p97
S'optiboot_atmega328.hex'
p98
sS'path'
p99
S'optiboot'
p100
sS'unlock_bits'
p101
S'0x3F'
p102
ssS'upload'
p103
(dp104
S'speed'
p105
S'115200'
p106
sS'maximum_size'
p107
S'32256'
p108
sS'protocol'
p109
S'arduino'
p110
ssS'name'
p111
S'Arduino Uno'
p112
sS'build'
p113
(dp114
S'core'
p115
S'arduino'
p116
sS'mcu'
p117
S'atmega328p'
p118
sS'f_cpu'
p119
S'16000000L'
p120
sS'variant'
p121
S'standard'
p122
ssaa(lp123
S'atmega328'
p124
a(dp125
S'bootloader'
p126
(dp127
S'extended_fuses'
p128
S'0x05'
p129
sS'high_fuses'
p130
S'0xDA'
p131
sS'low_fuses'
p132
S'0xFF'
p133
sS'lock_bits'
p134
S'0x0F'
p135
sS'file'
p136
S'ATmegaBOOT_168_atmega328.hex'
p137
sS'path'
p138
S'atmega'
p139
sS'unlock_bits'
p140
S'0x3F'
p141
ssS'upload'
p142
(dp143
S'speed'
p144
S'57600'
p145
sS'maximum_size'
p146
S'30720'
p147
sS'protocol'
p148
S'arduino'
p149
ssS'name'
p150
S'Arduino Duemilanove w/ ATmega328'
p151
sS'build'
p152
(dp153
S'core'
p154
S'arduino'
p155
sS'mcu'
p156
S'atmega328p'
p157
sS'f_cpu'
p158
S'16000000L'
p159
sS'variant'
p160
S'standard'
p161
ssaa(lp162
S'diecimila'
p163
a(dp164
S'bootloader'
p165
(dp166
S'extended_fuses'
p167
S'0x00'
p168
sS'high_fuses'
p169
S'0xdd'
p170
sS'low_fuses'
p171
S'0xff'
p172
sS'lock_bits'
p173
S'0x0F'
p174
sS'file'
p175
S'ATmegaBOOT_168_diecimila.hex'
p176
sS'path'
p177
S'atmega'
p178
sS'unlock_bits'
p179
S'0x3F'
p180
ssS'upload'
p181
(dp182
S'speed'
p183
S'19200'
p184
sS'maximum_size'
p185
S'14336'
p186
sS'protocol'
p187
S'arduino'
p188
ssS'name'
p189
S'Arduino Diecimila or Duemilanove w/ ATmega168'
p190
sS'build'
p191
(dp192
S'core'
p193
S'arduino'
p194
sS'mcu'
p195
S'atmega168'
p196
sS'f_cpu'
p197
S'16000000L'
p198
sS'variant'
p199
S'standard'
p200
ssaa(lp201
S'nano328'
p202
a(dp203
S'bootloader'
p204
(dp205
S'extended_fuses'
p206
S'0x05'
p207
sS'high_fuses'
p208
S'0xDA'
p209
sS'low_fuses'
p210
S'0xFF'
p211
sS'lock_bits'
p212
S'0x0F'
p213
sS'file'
p214
S'ATmegaBOOT_168_atmega328.hex'
p215
sS'path'
p216
S'atmega'
p217
sS'unlock_bits'
p218
S'0x3F'
p219
ssS'upload'
p220
(dp221
S'speed'
p222
S'57600'
p223
sS'maximum_size'
p224
S'30720'
p225
sS'protocol'
p226
S'arduino'
p227
ssS'name'
p228
S'Arduino Nano w/ ATmega328'
p229
sS'build'
p230
(dp231
S'core'
p232
S'arduino'
p233
sS'mcu'
p234
S'atmega328p'
p235
sS'f_cpu'
p236
S'16000000L'
p237
sS'variant'
p238
S'eightanaloginputs'
p239
ssaa(lp240
S'nano'
p241
a(dp242
S'bootloader'
p243
(dp244
S'extended_fuses'
p245
S'0x00'
p246
sS'high_fuses'
p247
S'0xdd'
p248
sS'low_fuses'
p249
S'0xff'
p250
sS'lock_bits'
p251
S'0x0F'
p252
sS'file'
p253
S'ATmegaBOOT_168_diecimila.hex'
p254
sS'path'
p255
S'atmega'
p256
sS'unlock_bits'
p257
S'0x3F'
p258
ssS'upload'
p259
(dp260
S'speed'
p261
S'19200'
p262
sS'maximum_size'
p263
S'14336'
p264
sS'protocol'
p265
S'arduino'
p266
ssS'name'
p267
S'Arduino Nano w/ ATmega168'
p268
sS'build'
p269
(dp270
S'core'
p271
S'arduino'
p272
sS'mcu'
p273
S'atmega168'
p274
sS'f_cpu'
p275
S'16000000L'
p276
sS'variant'
p277
S'eightanaloginputs'
p278
ssaa(lp279
S'mega2560'
p280
a(dp281
S'bootloader'
p282
(dp283
S'extended_fuses'
p284
S'0xFD'
p285
sS'high_fuses'
p286
S'0xD8'
p287
sS'low_fuses'
p288
S'0xFF'
p289
sS'lock_bits'
p290
S'0x0F'
p291
sS'file'
p292
S'stk500boot_v2_mega2560.hex'
p293
sS'path'
p294
S'stk500v2'
p295
sS'unlock_bits'
p296
S'0x3F'
p297
ssS'upload'
p298
(dp299
S'speed'
p300
S'115200'
p301
sS'maximum_size'
p302
S'258048'
p303
sS'protocol'
p304
S'stk500v2'
p305
ssS'name'
p306
S'Arduino Mega 2560 or Mega ADK'
p307
sS'build'
p308
(dp309
S'core'
p310
S'arduino'
p311
sS'mcu'
p312
S'atmega2560'
p313
sS'f_cpu'
p314
S'16000000L'
p315
sS'variant'
p316
S'mega'
p317
ssaa(lp318
S'mega'
p319
a(dp320
S'bootloader'
p321
(dp322
S'extended_fuses'
p323
S'0xF5'
p324
sS'high_fuses'
p325
S'0xDA'
p326
sS'low_fuses'
p327
S'0xFF'
p328
sS'lock_bits'
p329
S'0x0F'
p330
sS'file'
p331
S'ATmegaBOOT_168_atmega1280.hex'
p332
sS'path'
p333
S'atmega'
p334
sS'unlock_bits'
p335
S'0x3F'
p336
ssS'upload'
p337
(dp338
S'speed'
p339
S'57600'
p340
sS'maximum_size'
p341
S'126976'
p342
sS'protocol'
p343
S'arduino'
p344
ssS'name'
p345
S'Arduino Mega (ATmega1280)'
p346
sS'build'
p347
(dp348
S'core'
p349
S'arduino'
p350
sS'mcu'
p351
S'atmega1280'
p352
sS'f_cpu'
p353
S'16000000L'
p354
sS'variant'
p355
S'mega'
p356
ssaa(lp357
S'leonardo'
p358
a(dp359
S'bootloader'
p360
(dp361
S'extended_fuses'
p362
S'0xcb'
p363
sS'high_fuses'
p364
S'0xd8'
p365
sS'low_fuses'
p366
S'0xff'
p367
sS'lock_bits'
p368
S'0x2F'
p369
sS'file'
p370
S'Caterina-Leonardo.hex'
p371
sS'path'
p372
S'caterina'
p373
sS'unlock_bits'
p374
S'0x3F'
p375
ssS'upload'
p376
(dp377
S'speed'
p378
S'57600'
p379
sS'maximum_size'
p380
S'28672'
p381
sS'protocol'
p382
S'avr109'
p383
sS'disable_flushing'
p384
S'true'
p385
ssS'name'
p386
S'Arduino Leonardo'
p387
sS'build'
p388
(dp389
S'core'
p390
S'arduino'
p391
sS'f_cpu'
p392
S'16000000L'
p393
sS'vid'
p394
S'0x2341'
p395
sS'pid'
p396
S'0x8036'
p397
sS'variant'
p398
S'leonardo'
p399
sS'mcu'
p400
S'atmega32u4'
p401
ssaa(lp402
S'mini328'
p403
a(dp404
S'bootloader'
p405
(dp406
S'extended_fuses'
p407
S'0x05'
p408
sS'high_fuses'
p409
S'0xd8'
p410
sS'low_fuses'
p411
S'0xff'
p412
sS'lock_bits'
p413
S'0x0F'
p414
sS'file'
p415
S'optiboot_atmega328-Mini.hex'
p416
sS'path'
p417
S'optiboot'
p418
sS'unlock_bits'
p419
S'0x3F'
p420
ssS'upload'
p421
(dp422
S'speed'
p423
S'115200'
p424
sS'maximum_size'
p425
S'28672'
p426
sS'protocol'
p427
S'arduino'
p428
ssS'name'
p429
S'Arduino Mini w/ ATmega328'
p430
sS'build'
p431
(dp432
S'core'
p433
S'arduino'
p434
sS'mcu'
p435
S'atmega328p'
p436
sS'f_cpu'
p437
S'16000000L'
p438
sS'variant'
p439
S'eightanaloginputs'
p440
ssaa(lp441
S'mini'
p442
a(dp443
S'bootloader'
p444
(dp445
S'extended_fuses'
p446
S'0x00'
p447
sS'high_fuses'
p448
S'0xdd'
p449
sS'low_fuses'
p450
S'0xff'
p451
sS'lock_bits'
p452
S'0x0F'
p453
sS'file'
p454
S'ATmegaBOOT_168_ng.hex'
p455
sS'path'
p456
S'atmega'
p457
sS'unlock_bits'
p458
S'0x3F'
p459
ssS'upload'
p460
(dp461
S'speed'
p462
S'19200'
p463
sS'maximum_size'
p464
S'14336'
p465
sS'protocol'
p466
S'arduino'
p467
ssS'name'
p468
S'Arduino Mini w/ ATmega168'
p469
sS'build'
p470
(dp471
S'core'
p472
S'arduino'
p473
sS'mcu'
p474
S'atmega168'
p475
sS'f_cpu'
p476
S'16000000L'
p477
sS'variant'
p478
S'eightanaloginputs'
p479
ssaa(lp480
S'ethernet'
p481
a(dp482
S'bootloader'
p483
(dp484
S'extended_fuses'
p485
S'0x05'
p486
sS'high_fuses'
p487
S'0xde'
p488
sS'low_fuses'
p489
S'0xff'
p490
sS'lock_bits'
p491
S'0x0F'
p492
sS'file'
p493
S'optiboot_atmega328.hex'
p494
sS'path'
p495
S'optiboot'
p496
sS'unlock_bits'
p497
S'0x3F'
p498
ssS'upload'
p499
(dp500
S'speed'
p501
S'115200'
p502
sS'maximum_size'
p503
S'32256'
p504
sS'protocol'
p505
S'arduino'
p506
ssS'name'
p507
S'Arduino Ethernet'
p508
sS'build'
p509
(dp510
S'f_cpu'
p511
S'16000000L'
p512
sS'mcu'
p513
S'atmega328p'
p514
sS'variant'
p515
S'standard'
p516
sS'core'
p517
S'arduino'
p518
ssaa(lp519
S'fio'
p520
a(dp521
S'bootloader'
p522
(dp523
S'extended_fuses'
p524
S'0x05'
p525
sS'high_fuses'
p526
S'0xDA'
p527
sS'low_fuses'
p528
S'0xFF'
p529
sS'lock_bits'
p530
S'0x0F'
p531
sS'file'
p532
S'ATmegaBOOT_168_atmega328_pro_8MHz.hex'
p533
sS'path'
p534
S'arduino:atmega'
p535
sS'unlock_bits'
p536
S'0x3F'
p537
ssS'upload'
p538
(dp539
S'speed'
p540
S'57600'
p541
sS'maximum_size'
p542
S'30720'
p543
sS'protocol'
p544
S'arduino'
p545
ssS'name'
p546
S'Arduino Fio'
p547
sS'build'
p548
(dp549
S'core'
p550
S'arduino'
p551
sS'mcu'
p552
S'atmega328p'
p553
sS'f_cpu'
p554
S'8000000L'
p555
sS'variant'
p556
S'eightanaloginputs'
p557
ssaa(lp558
S'bt328'
p559
a(dp560
S'bootloader'
p561
(dp562
S'extended_fuses'
p563
S'0x05'
p564
sS'high_fuses'
p565
S'0xd8'
p566
sS'low_fuses'
p567
S'0xff'
p568
sS'lock_bits'
p569
S'0x0F'
p570
sS'file'
p571
S'ATmegaBOOT_168_atmega328_bt.hex'
p572
sS'path'
p573
S'bt'
p574
sS'unlock_bits'
p575
S'0x3F'
p576
ssS'upload'
p577
(dp578
S'speed'
p579
S'19200'
p580
sS'maximum_size'
p581
S'28672'
p582
sS'protocol'
p583
S'arduino'
p584
sS'disable_flushing'
p585
S'true'
p586
ssS'name'
p587
S'Arduino BT w/ ATmega328'
p588
sS'build'
p589
(dp590
S'core'
p591
S'arduino'
p592
sS'mcu'
p593
S'atmega328p'
p594
sS'f_cpu'
p595
S'16000000L'
p596
sS'variant'
p597
S'eightanaloginputs'
p598
ssaa(lp599
S'bt'
p600
a(dp601
S'bootloader'
p602
(dp603
S'extended_fuses'
p604
S'0x00'
p605
sS'high_fuses'
p606
S'0xdd'
p607
sS'low_fuses'
p608
S'0xff'
p609
sS'lock_bits'
p610
S'0x0F'
p611
sS'file'
p612
S'ATmegaBOOT_168.hex'
p613
sS'path'
p614
S'bt'
p615
sS'unlock_bits'
p616
S'0x3F'
p617
ssS'upload'
p618
(dp619
S'speed'
p620
S'19200'
p621
sS'maximum_size'
p622
S'14336'
p623
sS'protocol'
p624
S'arduino'
p625
sS'disable_flushing'
p626
S'true'
p627
ssS'name'
p628
S'Arduino BT w/ ATmega168'
p629
sS'build'
p630
(dp631
S'core'
p632
S'arduino'
p633
sS'mcu'
p634
S'atmega168'
p635
sS'f_cpu'
p636
S'16000000L'
p637
sS'variant'
p638
S'eightanaloginputs'
p639
ssaa(lp640
S'lilypad328'
p641
a(dp642
S'bootloader'
p643
(dp644
S'extended_fuses'
p645
S'0x05'
p646
sS'high_fuses'
p647
S'0xDA'
p648
sS'low_fuses'
p649
S'0xFF'
p650
sS'lock_bits'
p651
S'0x0F'
p652
sS'file'
p653
S'ATmegaBOOT_168_atmega328_pro_8MHz.hex'
p654
sS'path'
p655
S'atmega'
p656
sS'unlock_bits'
p657
S'0x3F'
p658
ssS'upload'
p659
(dp660
S'speed'
p661
S'57600'
p662
sS'maximum_size'
p663
S'30720'
p664
sS'protocol'
p665
S'arduino'
p666
ssS'name'
p667
S'LilyPad Arduino w/ ATmega328'
p668
sS'build'
p669
(dp670
S'core'
p671
S'arduino'
p672
sS'mcu'
p673
S'atmega328p'
p674
sS'f_cpu'
p675
S'8000000L'
p676
sS'variant'
p677
S'standard'
p678
ssaa(lp679
S'lilypad'
p680
a(dp681
S'bootloader'
p682
(dp683
S'extended_fuses'
p684
S'0x00'
p685
sS'high_fuses'
p686
S'0xdd'
p687
sS'low_fuses'
p688
S'0xe2'
p689
sS'lock_bits'
p690
S'0x0F'
p691
sS'file'
p692
S'LilyPadBOOT_168.hex'
p693
sS'path'
p694
S'lilypad'
p695
sS'unlock_bits'
p696
S'0x3F'
p697
ssS'upload'
p698
(dp699
S'speed'
p700
S'19200'
p701
sS'maximum_size'
p702
S'14336'
p703
sS'protocol'
p704
S'arduino'
p705
ssS'name'
p706
S'LilyPad Arduino w/ ATmega168'
p707
sS'build'
p708
(dp709
S'core'
p710
S'arduino'
p711
sS'mcu'
p712
S'atmega168'
p713
sS'f_cpu'
p714
S'8000000L'
p715
sS'variant'
p716
S'standard'
p717
ssaa(lp718
S'pro5v328'
p719
a(dp720
S'bootloader'
p721
(dp722
S'extended_fuses'
p723
S'0x05'
p724
sS'high_fuses'
p725
S'0xDA'
p726
sS'low_fuses'
p727
S'0xFF'
p728
sS'lock_bits'
p729
S'0x0F'
p730
sS'file'
p731
S'ATmegaBOOT_168_atmega328.hex'
p732
sS'path'
p733
S'atmega'
p734
sS'unlock_bits'
p735
S'0x3F'
p736
ssS'upload'
p737
(dp738
S'speed'
p739
S'57600'
p740
sS'maximum_size'
p741
S'30720'
p742
sS'protocol'
p743
S'arduino'
p744
ssS'name'
p745
S'Arduino Pro or Pro Mini (5V, 16 MHz) w/ ATmega328'
p746
sS'build'
p747
(dp748
S'core'
p749
S'arduino'
p750
sS'mcu'
p751
S'atmega328p'
p752
sS'f_cpu'
p753
S'16000000L'
p754
sS'variant'
p755
S'standard'
p756
ssaa(lp757
S'pro5v'
p758
a(dp759
S'bootloader'
p760
(dp761
S'extended_fuses'
p762
S'0x00'
p763
sS'high_fuses'
p764
S'0xdd'
p765
sS'low_fuses'
p766
S'0xff'
p767
sS'lock_bits'
p768
S'0x0F'
p769
sS'file'
p770
S'ATmegaBOOT_168_diecimila.hex'
p771
sS'path'
p772
S'atmega'
p773
sS'unlock_bits'
p774
S'0x3F'
p775
ssS'upload'
p776
(dp777
S'speed'
p778
S'19200'
p779
sS'maximum_size'
p780
S'14336'
p781
sS'protocol'
p782
S'arduino'
p783
ssS'name'
p784
S'Arduino Pro or Pro Mini (5V, 16 MHz) w/ ATmega168'
p785
sS'build'
p786
(dp787
S'core'
p788
S'arduino'
p789
sS'mcu'
p790
S'atmega168'
p791
sS'f_cpu'
p792
S'16000000L'
p793
sS'variant'
p794
S'standard'
p795
ssaa(lp796
S'pro328'
p797
a(dp798
S'bootloader'
p799
(dp800
S'extended_fuses'
p801
S'0x05'
p802
sS'high_fuses'
p803
S'0xDA'
p804
sS'low_fuses'
p805
S'0xFF'
p806
sS'lock_bits'
p807
S'0x0F'
p808
sS'file'
p809
S'ATmegaBOOT_168_atmega328_pro_8MHz.hex'
p810
sS'path'
p811
S'atmega'
p812
sS'unlock_bits'
p813
S'0x3F'
p814
ssS'upload'
p815
(dp816
S'speed'
p817
S'57600'
p818
sS'maximum_size'
p819
S'30720'
p820
sS'protocol'
p821
S'arduino'
p822
ssS'name'
p823
S'Arduino Pro or Pro Mini (3.3V, 8 MHz) w/ ATmega328'
p824
sS'build'
p825
(dp826
S'core'
p827
S'arduino'
p828
sS'mcu'
p829
S'atmega328p'
p830
sS'f_cpu'
p831
S'8000000L'
p832
sS'variant'
p833
S'standard'
p834
ssaa(lp835
S'pro'
p836
a(dp837
S'bootloader'
p838
(dp839
S'extended_fuses'
p840
S'0x00'
p841
sS'high_fuses'
p842
S'0xdd'
p843
sS'low_fuses'
p844
S'0xc6'
p845
sS'lock_bits'
p846
S'0x0F'
p847
sS'file'
p848
S'ATmegaBOOT_168_pro_8MHz.hex'
p849
sS'path'
p850
S'atmega'
p851
sS'unlock_bits'
p852
S'0x3F'
p853
ssS'upload'
p854
(dp855
S'speed'
p856
S'19200'
p857
sS'maximum_size'
p858
S'14336'
p859
sS'protocol'
p860
S'arduino'
p861
ssS'name'
p862
S'Arduino Pro or Pro Mini (3.3V, 8 MHz) w/ ATmega168'
p863
sS'build'
p864
(dp865
S'core'
p866
S'arduino'
p867
sS'mcu'
p868
S'atmega168'
p869
sS'f_cpu'
p870
S'8000000L'
p871
sS'variant'
p872
S'standard'
p873
ssaa(lp874
S'atmega168'
p875
a(dp876
S'bootloader'
p877
(dp878
S'extended_fuses'
p879
S'0x00'
p880
sS'high_fuses'
p881
S'0xdd'
p882
sS'low_fuses'
p883
S'0xff'
p884
sS'lock_bits'
p885
S'0x0F'
p886
sS'file'
p887
S'ATmegaBOOT_168_ng.hex'
p888
sS'path'
p889
S'atmega'
p890
sS'unlock_bits'
p891
S'0x3F'
p892
ssS'upload'
p893
(dp894
S'speed'
p895
S'19200'
p896
sS'maximum_size'
p897
S'14336'
p898
sS'protocol'
p899
S'arduino'
p900
ssS'name'
p901
S'Arduino NG or older w/ ATmega168'
p902
sS'build'
p903
(dp904
S'core'
p905
S'arduino'
p906
sS'mcu'
p907
S'atmega168'
p908
sS'f_cpu'
p909
S'16000000L'
p910
sS'variant'
p911
S'standard'
p912
ssaa(lp913
S'atmega8'
p914
a(dp915
S'bootloader'
p916
(dp917
S'high_fuses'
p918
S'0xca'
p919
sS'low_fuses'
p920
S'0xdf'
p921
sS'lock_bits'
p922
S'0x0F'
p923
sS'file'
p924
S'ATmegaBOOT.hex'
p925
sS'path'
p926
S'atmega8'
p927
sS'unlock_bits'
p928
S'0x3F'
p929
ssS'upload'
p930
(dp931
S'speed'
p932
S'19200'
p933
sS'maximum_size'
p934
S'7168'
p935
sS'protocol'
p936
S'arduino'
p937
ssS'name'
p938
S'Arduino NG or older w/ ATmega8'
p939
sS'build'
p940
(dp941
S'core'
p942
S'arduino'
p943
sS'mcu'
p944
S'atmega8'
p945
sS'f_cpu'
p946
S'16000000L'
p947
sS'variant'
p948
S'standard'
p949
ssaatp950
Rp951
(dp952
S'default'
p953
S'uno'
p954
sbtp955
a(S'cxx'
p956
S'/usr/bin/avr-g++'
p957
tp958
a.